; Function Attrs: mustprogress nofree norecurse nosync nounwind willreturn memory(read, inaccessiblemem: none) uwtable
define ptr @av_opt_next(ptr noundef readonly captures(address_is_null) %0, ptr noundef readonly captures(address_is_null, ret: address, provenance) %1) local_unnamed_addr #0 {
  %.not = icmp eq ptr %0, null
  br i1 %.not, label %16, label %3

3:                                                ; preds = %2
  %4 = load ptr, ptr %0, align 8, !tbaa !4
  %5 = icmp eq ptr %1, null
  %6 = icmp ne ptr %4, null
  %or.cond = select i1 %5, i1 %6, i1 false
  br i1 %or.cond, label %7, label %12

7:                                                ; preds = %3
  %8 = getelementptr inbounds nuw i8, ptr %4, i64 16
  %9 = load ptr, ptr %8, align 8, !tbaa !9
  %.not16 = icmp eq ptr %9, null
  br i1 %.not16, label %.thread, label %10

10:                                               ; preds = %7
  %11 = load ptr, ptr %9, align 8, !tbaa !14
  %.not17 = icmp eq ptr %11, null
  br i1 %.not17, label %.thread, label %16

12:                                               ; preds = %3
  br i1 %5, label %.thread, label %13

13:                                               ; preds = %12
  %14 = getelementptr inbounds nuw i8, ptr %1, i64 64
  %15 = load ptr, ptr %14, align 8, !tbaa !14
  %.not19 = icmp eq ptr %15, null
  br i1 %.not19, label %.thread, label %16

.thread:                                          ; preds = %7, %10, %13, %12
  br label %16

16:                                               ; preds = %13, %10, %2, %.thread
  %.0 = phi ptr [ null, %.thread ], [ null, %2 ], [ %9, %10 ], [ %14, %13 ]
  ret ptr %.0
}